; Function Attrs: mustprogress nounwind uwtable
define void @_ZN5boost9container3pmr25monotonic_buffer_resource7releaseEv(ptr nocapture noundef nonnull align 8 dereferenceable(64) %0) local_unnamed_addr #1 align 2 personality ptr @__gxx_personality_v0 {
  %2 = getelementptr inbounds nuw i8, ptr %0, i64 8
  %3 = getelementptr inbounds nuw i8, ptr %0, i64 16
  %4 = load ptr, ptr %3, align 8, !tbaa !21
  %5 = load ptr, ptr %2, align 8, !tbaa !15
  br label %_ZN5boost9container3pmr15memory_resource10deallocateEPvmm.exit.i.i

_ZN5boost9container3pmr15memory_resource10deallocateEPvmm.exit.i.i: ; preds = %6, %1
  %.0.i.i = phi ptr [ %5, %1 ], [ %7, %6 ]
  %.not.i.i = icmp eq ptr %.0.i.i, null
  br i1 %.not.i.i, label %_ZN5boost9container3pmr11block_slist7releaseEv.exit, label %6

6:                                                ; preds = %_ZN5boost9container3pmr15memory_resource10deallocateEPvmm.exit.i.i
  %7 = load ptr, ptr %.0.i.i, align 8, !tbaa !15
  %8 = getelementptr inbounds nuw i8, ptr %.0.i.i, i64 8
  %9 = load i64, ptr %8, align 8, !tbaa !22
  %10 = load ptr, ptr %4, align 8, !tbaa !13
  %11 = getelementptr inbounds i8, ptr %10, i64 24
  %12 = load ptr, ptr %11, align 8
  invoke void %12(ptr noundef nonnull align 8 dereferenceable(8) %4, ptr noundef nonnull %.0.i.i, i64 noundef %9, i64 noundef 16)
          to label %_ZN5boost9container3pmr15memory_resource10deallocateEPvmm.exit.i.i unwind label %13

13:                                               ; preds = %6
  %14 = landingpad { ptr, i32 }
          catch ptr null
  %15 = extractvalue { ptr, i32 } %14, 0
  tail call void @__clang_call_terminate(ptr %15) #16
  unreachable

_ZN5boost9container3pmr11block_slist7releaseEv.exit: ; preds = %_ZN5boost9container3pmr15memory_resource10deallocateEPvmm.exit.i.i
  store ptr null, ptr %2, align 8, !tbaa !15
  %16 = getelementptr inbounds nuw i8, ptr %0, i64 48
  %17 = load ptr, ptr %16, align 8, !tbaa !19
  %18 = getelementptr inbounds nuw i8, ptr %0, i64 24
  store ptr %17, ptr %18, align 8, !tbaa !17
  %19 = getelementptr inbounds nuw i8, ptr %0, i64 56
  %20 = load i64, ptr %19, align 8, !tbaa !20
  %21 = getelementptr inbounds nuw i8, ptr %0, i64 32
  store i64 %20, ptr %21, align 8, !tbaa !18
  %22 = getelementptr inbounds nuw i8, ptr %0, i64 40
  store i64 256, ptr %22, align 8, !tbaa !3
  ret void
}